Certificate:
    Data:
        Version: 3 (0x2)
        Serial Number: 1 (0x1)
    Signature Algorithm: sha256WithRSAEncryption
        Issuer: CN=eshore.cn
        Validity
            Not Before: Mar 12 17:30:34 2017 GMT
            Not After : Mar 10 17:30:34 2027 GMT
        Subject: CN=harbor.eshore.cn
        Subject Public Key Info:
            Public Key Algorithm: rsaEncryption
                Public-Key: (2048 bit)
                Modulus:
                    00:b7:d7:c7:5b:7f:36:ae:74:5a:da:33:d8:9b:b5:
                    a8:91:80:7c:fc:23:59:5d:21:ca:69:80:43:22:b3:
                    74:71:9b:f8:ea:11:26:15:24:0b:b7:f8:52:eb:1b:
                    75:2a:1b:ab:56:6c:68:00:a9:2a:3a:0f:b1:a5:56:
                    d8:2a:f9:c8:a1:5f:18:ab:03:b4:23:46:da:0c:8b:
                    81:0d:67:25:2a:b9:55:1a:0f:33:c2:7a:be:b4:8f:
                    17:8a:68:1e:53:e8:92:d7:fe:5a:a5:8e:36:05:60:
                    93:89:65:36:21:58:9c:69:75:1d:a9:08:75:72:84:
                    4e:b6:f6:79:52:8b:cc:21:86:2e:5c:73:67:a0:85:
                    d3:a4:a6:6c:2d:b2:05:66:a1:01:94:fd:d2:55:57:
                    e8:7c:e9:68:39:07:85:ba:16:e3:71:4e:37:42:fd:
                    19:64:fd:66:5d:a3:5d:c1:45:61:50:83:38:66:dc:
                    9d:86:f9:a7:4f:19:1f:0b:08:65:7e:dc:af:b1:99:
                    c6:f0:a8:76:5c:9d:27:50:ea:e8:92:c6:9d:5a:52:
                    1f:f5:66:07:f2:81:2f:3e:fc:95:66:c5:8e:a6:9c:
                    66:4a:e5:2a:53:08:de:13:f0:c6:8a:bf:84:a8:4e:
                    5d:a2:aa:b5:a0:27:16:d4:a7:29:2b:f2:f5:0d:2f:
                    14:db
                Exponent: 65537 (0x10001)
        X509v3 extensions:
            X509v3 Basic Constraints: 
                CA:FALSE
            X509v3 Subject Key Identifier: 
                06:D8:ED:06:0C:8C:1F:83:9E:96:3B:DA:9C:F5:9E:A4:41:1B:B5:F9
            X509v3 Authority Key Identifier: 
                keyid:86:7A:E5:61:AA:7F:D9:88:EC:DA:E2:54:2F:02:53:0C:51:71:61:76
                DirName:/CN=eshore.cn
                serial:D0:D1:E3:3D:22:99:29:51

            X509v3 Extended Key Usage: 
                TLS Web Client Authentication
            X509v3 Key Usage: 
                Digital Signature
    Signature Algorithm: sha256WithRSAEncryption
         5a:6d:1a:83:35:5d:19:dc:d8:7c:78:35:cb:43:ff:05:65:7b:
         14:28:a0:56:79:cb:1a:b3:f6:18:40:fe:b7:41:2c:c8:2d:aa:
         d7:5f:6d:9d:c4:2c:30:9c:97:b3:fd:a3:1f:69:cd:85:7f:27:
         7a:db:4b:6d:c1:15:17:ed:4e:b7:8c:40:b0:3b:f6:42:3d:d5:
         35:1b:ac:f4:02:ac:78:1f:47:f6:22:fa:10:76:68:28:9e:2e:
         fe:0f:74:89:bf:64:21:db:ce:46:00:d6:3d:2e:73:17:5f:fb:
         06:93:75:22:b3:04:c9:5a:86:86:06:9c:fc:85:0c:d2:95:41:
         f2:3d:66:24:43:d8:dd:6f:c6:59:76:a6:a2:6b:ac:a6:40:0b:
         dc:c4:73:ef:cd:fe:d8:33:a2:63:b5:81:30:b4:26:c3:54:4c:
         d9:69:5a:65:20:74:30:83:8b:33:e1:28:92:eb:0b:8e:d5:51:
         a9:c5:87:2e:64:4b:9f:a7:99:d7:f8:d3:62:4a:f8:4b:fd:0d:
         4f:2a:af:0d:26:f5:15:df:59:44:de:d8:c9:a7:c7:bf:29:2e:
         cd:5f:47:6b:3f:71:2d:5b:24:dc:b8:72:3a:28:f9:5b:94:99:
         5a:31:45:85:d3:4d:b6:cd:fe:8f:39:e6:bf:95:92:53:c9:4f:
         25:ec:0f:f7
-----BEGIN CERTIFICATE-----
MIIDQDCCAiigAwIBAgIBATANBgkqhkiG9w0BAQsFADAUMRIwEAYDVQQDEwllc2hv
cmUuY24wHhcNMTcwMzEyMTczMDM0WhcNMjcwMzEwMTczMDM0WjAbMRkwFwYDVQQD
ExBoYXJib3IuZXNob3JlLmNuMIIBIjANBgkqhkiG9w0BAQEFAAOCAQ8AMIIBCgKC
AQEAt9fHW382rnRa2jPYm7WokYB8/CNZXSHKaYBDIrN0cZv46hEmFSQLt/hS6xt1
KhurVmxoAKkqOg+xpVbYKvnIoV8YqwO0I0baDIuBDWclKrlVGg8zwnq+tI8Ximge
U+iS1/5apY42BWCTiWU2IVicaXUdqQh1coROtvZ5UovMIYYuXHNnoIXTpKZsLbIF
ZqEBlP3SVVfofOloOQeFuhbjcU43Qv0ZZP1mXaNdwUVhUIM4ZtydhvmnTxkfCwhl
ftyvsZnG8Kh2XJ0nUOroksadWlIf9WYH8oEvPvyVZsWOppxmSuUqUwjeE/DGir+E
qE5doqq1oCcW1KcpK/L1DS8U2wIDAQABo4GVMIGSMAkGA1UdEwQCMAAwHQYDVR0O
BBYEFAbY7QYMjB+DnpY72pz1nqRBG7X5MEQGA1UdIwQ9MDuAFIZ65WGqf9mI7Nri
VC8CUwxRcWF2oRikFjAUMRIwEAYDVQQDEwllc2hvcmUuY26CCQDQ0eM9IpkpUTAT
BgNVHSUEDDAKBggrBgEFBQcDAjALBgNVHQ8EBAMCB4AwDQYJKoZIhvcNAQELBQAD
ggEBAFptGoM1XRnc2Hx4NctD/wVlexQooFZ5yxqz9hhA/rdBLMgtqtdfbZ3ELDCc
l7P9ox9pzYV/J3rbS23BFRftTreMQLA79kI91TUbrPQCrHgfR/Yi+hB2aCieLv4P
dIm/ZCHbzkYA1j0ucxdf+waTdSKzBMlahoYGnPyFDNKVQfI9ZiRD2N1vxll2pqJr
rKZAC9zEc+/N/tgzomO1gTC0JsNUTNlpWmUgdDCDizPhKJLrC47VUanFhy5kS5+n
mdf402JK+Ev9DU8qrw0m9RXfWUTe2Mmnx78pLs1fR2s/cS1bJNy4cjoo+VuUmVox
RYXTTbbN/o855r+VklPJTyXsD/c=
-----END CERTIFICATE-----
