Certificate:
    Data:
        Version: 3 (0x2)
        Serial Number: 2 (0x2)
    Signature Algorithm: sha256WithRSAEncryption
        Issuer: CN=eshore.cn
        Validity
            Not Before: Mar 12 17:46:11 2017 GMT
            Not After : Mar 10 17:46:11 2027 GMT
        Subject: CN=cu.eshore.cn
        Subject Public Key Info:
            Public Key Algorithm: rsaEncryption
                Public-Key: (2048 bit)
                Modulus:
                    00:b3:03:20:39:e5:5f:e7:04:08:eb:3d:5b:d1:39:
                    cd:eb:5e:e0:77:f4:71:30:37:96:50:cc:9e:5d:af:
                    e5:14:69:86:28:35:d5:b1:ca:04:64:5d:ee:03:ec:
                    81:de:83:00:df:d8:49:0f:a2:9a:da:26:5f:59:14:
                    18:0b:8b:95:9b:6a:65:ec:6f:cd:99:11:68:ad:26:
                    d2:cf:b1:bb:92:a5:ff:de:11:d3:b9:b2:da:83:27:
                    03:07:aa:15:b5:14:fa:20:51:91:7d:e0:5e:7e:c9:
                    18:ed:d7:f3:63:90:c8:cc:b8:42:e7:9a:8f:ac:9b:
                    e6:61:c7:a0:6c:94:da:09:a3:97:15:28:6c:27:ca:
                    f3:34:b2:14:cf:3f:0c:d6:a6:a6:fe:c0:1c:ba:8b:
                    ab:1c:de:51:67:a7:4b:ef:cc:c9:df:e5:8d:cd:7d:
                    bc:f1:02:94:6d:62:4f:71:8a:04:18:31:f8:73:4a:
                    9f:6d:60:d3:88:01:40:a2:26:63:63:26:28:71:c8:
                    9b:db:f0:f4:8d:2e:b7:56:51:55:6b:7f:70:b7:94:
                    07:f2:70:f0:06:7d:c6:b6:b8:13:3a:b0:d0:3d:f1:
                    f7:a0:7d:0b:c6:26:51:07:36:19:6d:e4:d0:e5:fe:
                    f2:b3:a0:60:b9:53:ec:5b:bb:0f:cb:fe:e0:82:1f:
                    18:bf
                Exponent: 65537 (0x10001)
        X509v3 extensions:
            X509v3 Basic Constraints: 
                CA:FALSE
            X509v3 Subject Key Identifier: 
                6C:C6:CB:67:08:3D:D2:3B:99:17:44:26:32:3F:8B:E6:2C:F4:1B:48
            X509v3 Authority Key Identifier: 
                keyid:86:7A:E5:61:AA:7F:D9:88:EC:DA:E2:54:2F:02:53:0C:51:71:61:76
                DirName:/CN=eshore.cn
                serial:D0:D1:E3:3D:22:99:29:51

            X509v3 Extended Key Usage: 
                TLS Web Client Authentication
            X509v3 Key Usage: 
                Digital Signature
    Signature Algorithm: sha256WithRSAEncryption
         48:09:c3:70:07:7b:34:1a:b1:51:bf:d9:f2:10:60:89:8d:57:
         c7:1e:5b:90:66:46:42:eb:b2:36:11:bf:92:66:cf:c8:5a:d4:
         e4:6d:3e:51:6c:a9:92:2e:00:ad:d3:22:66:a1:fe:55:22:87:
         28:69:af:95:dc:a2:b1:62:90:44:a7:6f:f0:ea:d1:10:01:a5:
         c6:fd:20:38:17:b0:c3:8b:86:a9:76:97:b7:77:f5:54:4e:26:
         3d:4e:7f:0b:fd:b4:b9:40:ec:54:29:f5:b8:ce:5b:d0:85:f8:
         82:37:a9:ad:63:c7:98:11:b8:2f:c4:f2:7d:93:cd:52:c7:04:
         bc:8d:a8:3d:29:b6:60:7b:6d:34:18:20:86:41:fb:78:f5:c5:
         d0:be:ef:46:01:92:3e:a4:eb:05:22:78:78:4a:db:67:ae:47:
         5f:7e:b4:8e:68:e8:1e:e1:f9:a3:0f:d2:5b:0b:6a:5c:b5:6f:
         44:31:b7:cf:66:e0:c3:23:43:8b:7d:26:b6:50:96:85:03:f7:
         bf:ce:de:b1:8d:ef:de:ed:54:48:0f:ee:43:24:f9:9f:ab:9c:
         86:f4:98:62:af:49:7d:9f:b1:77:6c:6b:18:b2:09:d2:fb:23:
         59:da:b8:95:25:fd:31:dd:1d:c4:01:94:21:7c:bc:58:85:ee:
         3b:78:bb:79
-----BEGIN CERTIFICATE-----
MIIDPDCCAiSgAwIBAgIBAjANBgkqhkiG9w0BAQsFADAUMRIwEAYDVQQDEwllc2hv
cmUuY24wHhcNMTcwMzEyMTc0NjExWhcNMjcwMzEwMTc0NjExWjAXMRUwEwYDVQQD
EwxjdS5lc2hvcmUuY24wggEiMA0GCSqGSIb3DQEBAQUAA4IBDwAwggEKAoIBAQCz
AyA55V/nBAjrPVvROc3rXuB39HEwN5ZQzJ5dr+UUaYYoNdWxygRkXe4D7IHegwDf
2EkPopraJl9ZFBgLi5WbamXsb82ZEWitJtLPsbuSpf/eEdO5stqDJwMHqhW1FPog
UZF94F5+yRjt1/NjkMjMuELnmo+sm+Zhx6BslNoJo5cVKGwnyvM0shTPPwzWpqb+
wBy6i6sc3lFnp0vvzMnf5Y3NfbzxApRtYk9xigQYMfhzSp9tYNOIAUCiJmNjJihx
yJvb8PSNLrdWUVVrf3C3lAfycPAGfca2uBM6sNA98fegfQvGJlEHNhlt5NDl/vKz
oGC5U+xbuw/L/uCCHxi/AgMBAAGjgZUwgZIwCQYDVR0TBAIwADAdBgNVHQ4EFgQU
bMbLZwg90juZF0QmMj+L5iz0G0gwRAYDVR0jBD0wO4AUhnrlYap/2Yjs2uJULwJT
DFFxYXahGKQWMBQxEjAQBgNVBAMTCWVzaG9yZS5jboIJANDR4z0imSlRMBMGA1Ud
JQQMMAoGCCsGAQUFBwMCMAsGA1UdDwQEAwIHgDANBgkqhkiG9w0BAQsFAAOCAQEA
SAnDcAd7NBqxUb/Z8hBgiY1Xxx5bkGZGQuuyNhG/kmbPyFrU5G0+UWypki4ArdMi
ZqH+VSKHKGmvldyisWKQRKdv8OrREAGlxv0gOBeww4uGqXaXt3f1VE4mPU5/C/20
uUDsVCn1uM5b0IX4gjeprWPHmBG4L8TyfZPNUscEvI2oPSm2YHttNBgghkH7ePXF
0L7vRgGSPqTrBSJ4eErbZ65HX360jmjoHuH5ow/SWwtqXLVvRDG3z2bgwyNDi30m
tlCWhQP3v87esY3v3u1USA/uQyT5n6uchvSYYq9JfZ+xd2xrGLIJ0vsjWdq4lSX9
Md0dxAGUIXy8WIXuO3i7eQ==
-----END CERTIFICATE-----
