Certificate:
    Data:
        Version: 3 (0x2)
        Serial Number: 3 (0x3)
    Signature Algorithm: sha256WithRSAEncryption
        Issuer: CN=eshore.cn
        Validity
            Not Before: Mar 12 23:36:42 2017 GMT
            Not After : Mar 10 23:36:42 2027 GMT
        Subject: CN=cu.eshore.cn
        Subject Public Key Info:
            Public Key Algorithm: rsaEncryption
                Public-Key: (2048 bit)
                Modulus:
                    00:b3:03:20:39:e5:5f:e7:04:08:eb:3d:5b:d1:39:
                    cd:eb:5e:e0:77:f4:71:30:37:96:50:cc:9e:5d:af:
                    e5:14:69:86:28:35:d5:b1:ca:04:64:5d:ee:03:ec:
                    81:de:83:00:df:d8:49:0f:a2:9a:da:26:5f:59:14:
                    18:0b:8b:95:9b:6a:65:ec:6f:cd:99:11:68:ad:26:
                    d2:cf:b1:bb:92:a5:ff:de:11:d3:b9:b2:da:83:27:
                    03:07:aa:15:b5:14:fa:20:51:91:7d:e0:5e:7e:c9:
                    18:ed:d7:f3:63:90:c8:cc:b8:42:e7:9a:8f:ac:9b:
                    e6:61:c7:a0:6c:94:da:09:a3:97:15:28:6c:27:ca:
                    f3:34:b2:14:cf:3f:0c:d6:a6:a6:fe:c0:1c:ba:8b:
                    ab:1c:de:51:67:a7:4b:ef:cc:c9:df:e5:8d:cd:7d:
                    bc:f1:02:94:6d:62:4f:71:8a:04:18:31:f8:73:4a:
                    9f:6d:60:d3:88:01:40:a2:26:63:63:26:28:71:c8:
                    9b:db:f0:f4:8d:2e:b7:56:51:55:6b:7f:70:b7:94:
                    07:f2:70:f0:06:7d:c6:b6:b8:13:3a:b0:d0:3d:f1:
                    f7:a0:7d:0b:c6:26:51:07:36:19:6d:e4:d0:e5:fe:
                    f2:b3:a0:60:b9:53:ec:5b:bb:0f:cb:fe:e0:82:1f:
                    18:bf
                Exponent: 65537 (0x10001)
        X509v3 extensions:
            X509v3 Basic Constraints: 
                CA:FALSE
            X509v3 Subject Key Identifier: 
                6C:C6:CB:67:08:3D:D2:3B:99:17:44:26:32:3F:8B:E6:2C:F4:1B:48
            X509v3 Authority Key Identifier: 
                keyid:86:7A:E5:61:AA:7F:D9:88:EC:DA:E2:54:2F:02:53:0C:51:71:61:76
                DirName:/CN=eshore.cn
                serial:D0:D1:E3:3D:22:99:29:51

            X509v3 Extended Key Usage: 
                TLS Web Server Authentication
            X509v3 Key Usage: 
                Digital Signature, Key Encipherment
    Signature Algorithm: sha256WithRSAEncryption
         b6:7e:ea:c9:c6:ad:23:f1:73:48:5e:98:0e:29:03:62:02:12:
         e0:10:f5:43:b6:39:02:99:cd:8a:9c:e3:7f:b2:9c:5f:68:6d:
         29:46:8f:5d:79:7f:43:d2:b9:ff:67:54:53:01:ca:66:34:46:
         56:0c:dd:21:30:8a:d7:24:cc:f0:30:d1:72:c9:c0:c0:bb:7f:
         85:95:30:ee:a8:57:1e:bc:11:d9:a9:04:4f:ec:b0:ba:8f:8c:
         02:ce:95:fd:bf:86:b0:33:e2:5c:08:6e:3b:71:c1:59:36:c9:
         bf:5b:b0:72:af:22:7f:c0:4e:5b:75:ba:92:6f:32:20:2e:86:
         aa:10:eb:8d:24:f1:97:19:a2:a0:43:85:e2:6f:b3:df:06:33:
         2c:40:73:f3:c1:ab:fc:c7:59:d0:df:f3:40:69:01:67:3c:96:
         4f:b6:1f:f8:e3:03:f5:fc:19:71:c7:b6:96:96:4c:75:34:07:
         19:b5:28:74:45:c9:f9:bd:82:01:b5:6a:1f:7a:f3:d1:95:b3:
         39:7f:e6:ec:72:09:84:20:0f:81:89:f2:36:b4:15:f0:7d:b0:
         c0:bd:b7:b3:ea:27:db:8c:48:de:42:26:2d:1e:02:09:82:4a:
         91:d0:49:79:65:84:4d:03:c3:45:32:7b:fe:60:af:6a:7c:c6:
         f1:32:29:66
-----BEGIN CERTIFICATE-----
MIIDPDCCAiSgAwIBAgIBAzANBgkqhkiG9w0BAQsFADAUMRIwEAYDVQQDEwllc2hv
cmUuY24wHhcNMTcwMzEyMjMzNjQyWhcNMjcwMzEwMjMzNjQyWjAXMRUwEwYDVQQD
EwxjdS5lc2hvcmUuY24wggEiMA0GCSqGSIb3DQEBAQUAA4IBDwAwggEKAoIBAQCz
AyA55V/nBAjrPVvROc3rXuB39HEwN5ZQzJ5dr+UUaYYoNdWxygRkXe4D7IHegwDf
2EkPopraJl9ZFBgLi5WbamXsb82ZEWitJtLPsbuSpf/eEdO5stqDJwMHqhW1FPog
UZF94F5+yRjt1/NjkMjMuELnmo+sm+Zhx6BslNoJo5cVKGwnyvM0shTPPwzWpqb+
wBy6i6sc3lFnp0vvzMnf5Y3NfbzxApRtYk9xigQYMfhzSp9tYNOIAUCiJmNjJihx
yJvb8PSNLrdWUVVrf3C3lAfycPAGfca2uBM6sNA98fegfQvGJlEHNhlt5NDl/vKz
oGC5U+xbuw/L/uCCHxi/AgMBAAGjgZUwgZIwCQYDVR0TBAIwADAdBgNVHQ4EFgQU
bMbLZwg90juZF0QmMj+L5iz0G0gwRAYDVR0jBD0wO4AUhnrlYap/2Yjs2uJULwJT
DFFxYXahGKQWMBQxEjAQBgNVBAMTCWVzaG9yZS5jboIJANDR4z0imSlRMBMGA1Ud
JQQMMAoGCCsGAQUFBwMBMAsGA1UdDwQEAwIFoDANBgkqhkiG9w0BAQsFAAOCAQEA
tn7qycatI/FzSF6YDikDYgIS4BD1Q7Y5ApnNipzjf7KcX2htKUaPXXl/Q9K5/2dU
UwHKZjRGVgzdITCK1yTM8DDRcsnAwLt/hZUw7qhXHrwR2akET+ywuo+MAs6V/b+G
sDPiXAhuO3HBWTbJv1uwcq8if8BOW3W6km8yIC6GqhDrjSTxlxmioEOF4m+z3wYz
LEBz88Gr/MdZ0N/zQGkBZzyWT7Yf+OMD9fwZcce2lpZMdTQHGbUodEXJ+b2CAbVq
H3rz0ZWzOX/m7HIJhCAPgYnyNrQV8H2wwL23s+on24xI3kImLR4CCYJKkdBJeWWE
TQPDRTJ7/mCvanzG8TIpZg==
-----END CERTIFICATE-----
